target datalayout = "e-m:e-p270:32:32-p271:32:32-p272:64:64-i64:64-i128:128-f80:128-n8:16:32:64-S128"
target triple = "x86_64-pc-linux-gnu"

; Function Attrs: mustprogress uwtable
define noundef ptr @_ZN15MainApplication22readConfigurationFilesEb(ptr noundef nonnull align 8 dereferenceable(216) %0, i1 noundef zeroext %1) #4 align 2 {
  %3 = alloca ptr, align 8
  %4 = alloca i8, align 1
  %5 = alloca ptr, align 8
  store ptr %0, ptr %3, align 8
  %6 = zext i1 %1 to i8
  store i8 %6, ptr %4, align 1
  %7 = load i8, ptr %4, align 1
  %8 = trunc i8 %7 to i1
  br i1 %8, label %9, label %10

9:                                                ; preds = %2
  call void @prefs_reset()
  call void @proto_reenable_all()
  br label %10

10:                                               ; preds = %9, %2
  %11 = call ptr @epan_load_settings()
  store ptr %11, ptr %5, align 8
  %12 = load ptr, ptr %5, align 8
  ret ptr %12
}