; Function Attrs: mustprogress uwtable
define noundef ptr @_ZN15MainApplication22readConfigurationFilesEb(ptr nocapture noundef nonnull readnone align 8 dereferenceable(216) %0, i1 noundef zeroext %1) local_unnamed_addr #3 align 2 {
  br i1 %1, label %3, label %4

3:                                                ; preds = %2
  tail call void @prefs_reset()
  tail call void @proto_reenable_all()
  br label %4

4:                                                ; preds = %3, %2
  %5 = tail call ptr @epan_load_settings()
  ret ptr %5
}